target datalayout = "e-m:e-p270:32:32-p271:32:32-p272:64:64-i64:64-i128:128-f80:128-n8:16:32:64-S128"
target triple = "x86_64-pc-linux-gnu"

%struct.StatusPrinter = type { %struct.Status, ptr, i32, i32, i32, i32, i64, i64, double, i32, i64, i32, i64, i32, %struct.LinePrinter, ptr, ptr, %"struct.StatusPrinter::SlidingRateInfo" }
%struct.Status = type { ptr }
%struct.LinePrinter = type { i8, i8, i8, i8, %"class.std::__cxx11::basic_string", i32, %"class.std::__cxx11::basic_string" }
%"class.std::__cxx11::basic_string" = type { %"struct.std::__cxx11::basic_string<char>::_Alloc_hider", i64, %union.anon }
%"struct.std::__cxx11::basic_string<char>::_Alloc_hider" = type { ptr }
%union.anon = type { i64, [8 x i8] }
%"struct.StatusPrinter::SlidingRateInfo" = type <{ double, i64, %"class.std::queue", i32, [4 x i8] }>
%"class.std::queue" = type { %"class.std::deque" }
%"class.std::deque" = type { %"class.std::_Deque_base" }
%"class.std::_Deque_base" = type { %"struct.std::_Deque_base<double, std::allocator<double>>::_Deque_impl" }
%"struct.std::_Deque_base<double, std::allocator<double>>::_Deque_impl" = type { %"struct.std::_Deque_base<double, std::allocator<double>>::_Deque_impl_data" }
%"struct.std::_Deque_base<double, std::allocator<double>>::_Deque_impl_data" = type { ptr, i64, %"struct.std::_Deque_iterator", %"struct.std::_Deque_iterator" }
%"struct.std::_Deque_iterator" = type { ptr, ptr, ptr, ptr }

; Function Attrs: inlinehint mustprogress nounwind uwtable
define linkonce_odr dso_local noundef nonnull align 8 dereferenceable(8) ptr @_ZSt3minIdERKT_S2_S2_(ptr noundef nonnull align 8 dereferenceable(8) %0, ptr noundef nonnull align 8 dereferenceable(8) %1) #3 comdat {
  %3 = alloca ptr, align 8
  %4 = alloca ptr, align 8
  %5 = alloca ptr, align 8
  store ptr %0, ptr %4, align 8, !tbaa !94
  store ptr %1, ptr %5, align 8, !tbaa !94
  %6 = load ptr, ptr %5, align 8, !tbaa !94
  %7 = load double, ptr %6, align 8, !tbaa !93
  %8 = load ptr, ptr %4, align 8, !tbaa !94
  %9 = load double, ptr %8, align 8, !tbaa !93
  %10 = fcmp olt double %7, %9
  br i1 %10, label %11, label %13

11:                                               ; preds = %2
  %12 = load ptr, ptr %5, align 8, !tbaa !94
  store ptr %12, ptr %3, align 8
  br label %15

13:                                               ; preds = %2
  %14 = load ptr, ptr %4, align 8, !tbaa !94
  store ptr %14, ptr %3, align 8
  br label %15

15:                                               ; preds = %13, %11
  %16 = load ptr, ptr %3, align 8
  ret ptr %16
}

; Function Attrs: inlinehint mustprogress nounwind uwtable
define linkonce_odr dso_local noundef nonnull align 8 dereferenceable(8) ptr @_ZSt3maxIdERKT_S2_S2_(ptr noundef nonnull align 8 dereferenceable(8) %0, ptr noundef nonnull align 8 dereferenceable(8) %1) #3 comdat {
  %3 = alloca ptr, align 8
  %4 = alloca ptr, align 8
  %5 = alloca ptr, align 8
  store ptr %0, ptr %4, align 8, !tbaa !94
  store ptr %1, ptr %5, align 8, !tbaa !94
  %6 = load ptr, ptr %4, align 8, !tbaa !94
  %7 = load double, ptr %6, align 8, !tbaa !93
  %8 = load ptr, ptr %5, align 8, !tbaa !94
  %9 = load double, ptr %8, align 8, !tbaa !93
  %10 = fcmp olt double %7, %9
  br i1 %10, label %11, label %13

11:                                               ; preds = %2
  %12 = load ptr, ptr %5, align 8, !tbaa !94
  store ptr %12, ptr %3, align 8
  br label %15

13:                                               ; preds = %2
  %14 = load ptr, ptr %4, align 8, !tbaa !94
  store ptr %14, ptr %3, align 8
  br label %15

15:                                               ; preds = %13, %11
  %16 = load ptr, ptr %3, align 8
  ret ptr %16
}

; Function Attrs: mustprogress uwtable
define dso_local void @_ZN13StatusPrinter29RecalculateProgressPredictionEv(ptr noundef nonnull align 8 dereferenceable(296) %0) #0 align 2 {
  %2 = alloca ptr, align 8
  %3 = alloca i8, align 1
  %4 = alloca double, align 8
  %5 = alloca double, align 8
  %6 = alloca double, align 8
  %7 = alloca i32, align 4
  %8 = alloca i32, align 4
  %9 = alloca i32, align 4
  %10 = alloca i64, align 8
  %11 = alloca double, align 8
  %12 = alloca double, align 8
  %13 = alloca double, align 8
  %14 = alloca double, align 8
  store ptr %0, ptr %2, align 8, !tbaa !9
  %15 = load ptr, ptr %2, align 8
  %16 = getelementptr inbounds nuw %struct.StatusPrinter, ptr %15, i32 0, i32 8
  store double 0.000000e+00, ptr %16, align 8, !tbaa !41
  call void @llvm.lifetime.start.p0(i64 1, ptr %3) #19
  %17 = getelementptr inbounds nuw %struct.StatusPrinter, ptr %15, i32 0, i32 11
  %18 = load i32, ptr %17, align 8, !tbaa !44
  %19 = icmp ne i32 %18, 0
  br i1 %19, label %20, label %24

20:                                               ; preds = %1
  %21 = getelementptr inbounds nuw %struct.StatusPrinter, ptr %15, i32 0, i32 12
  %22 = load i64, ptr %21, align 8, !tbaa !45
  %23 = icmp ne i64 %22, 0
  br label %24

24:                                               ; preds = %20, %1
  %25 = phi i1 [ false, %1 ], [ %23, %20 ]
  %26 = zext i1 %25 to i8
  store i8 %26, ptr %3, align 1, !tbaa !65
  %27 = load i8, ptr %3, align 1, !tbaa !65, !range !66, !noundef !67
  %28 = trunc i8 %27 to i1
  br i1 %28, label %29, label %74

29:                                               ; preds = %24
  %30 = getelementptr inbounds nuw %struct.StatusPrinter, ptr %15, i32 0, i32 4
  %31 = load i32, ptr %30, align 8, !tbaa !37
  %32 = icmp ne i32 %31, 0
  br i1 %32, label %33, label %74

33:                                               ; preds = %29
  %34 = getelementptr inbounds nuw %struct.StatusPrinter, ptr %15, i32 0, i32 3
  %35 = load i32, ptr %34, align 4, !tbaa !36
  %36 = icmp ne i32 %35, 0
  br i1 %36, label %37, label %74

37:                                               ; preds = %33
  %38 = getelementptr inbounds nuw %struct.StatusPrinter, ptr %15, i32 0, i32 6
  %39 = load i64, ptr %38, align 8, !tbaa !39
  %40 = sitofp i64 %39 to double
  %41 = fcmp oge double %40, 1.500000e+04
  br i1 %41, label %42, label %74

42:                                               ; preds = %37
  %43 = getelementptr inbounds nuw %struct.StatusPrinter, ptr %15, i32 0, i32 3
  %44 = load i32, ptr %43, align 4, !tbaa !36
  %45 = sitofp i32 %44 to double
  %46 = getelementptr inbounds nuw %struct.StatusPrinter, ptr %15, i32 0, i32 4
  %47 = load i32, ptr %46, align 8, !tbaa !37
  %48 = sitofp i32 %47 to double
  %49 = fdiv double %45, %48
  %50 = fcmp oge double %49, 5.000000e-02
  br i1 %50, label %51, label %74

51:                                               ; preds = %42
  call void @llvm.lifetime.start.p0(i64 8, ptr %4) #19
  %52 = getelementptr inbounds nuw %struct.StatusPrinter, ptr %15, i32 0, i32 7
  %53 = load i64, ptr %52, align 8, !tbaa !40
  %54 = sitofp i64 %53 to double
  %55 = getelementptr inbounds nuw %struct.StatusPrinter, ptr %15, i32 0, i32 3
  %56 = load i32, ptr %55, align 4, !tbaa !36
  %57 = sitofp i32 %56 to double
  %58 = fdiv double %54, %57
  store double %58, ptr %4, align 8, !tbaa !93
  call void @llvm.lifetime.start.p0(i64 8, ptr %5) #19
  %59 = getelementptr inbounds nuw %struct.StatusPrinter, ptr %15, i32 0, i32 10
  %60 = load i64, ptr %59, align 8, !tbaa !43
  %61 = sitofp i64 %60 to double
  %62 = getelementptr inbounds nuw %struct.StatusPrinter, ptr %15, i32 0, i32 9
  %63 = load i32, ptr %62, align 8, !tbaa !42
  %64 = sitofp i32 %63 to double
  %65 = fdiv double %61, %64
  store double %65, ptr %5, align 8, !tbaa !93
  call void @llvm.lifetime.start.p0(i64 8, ptr %6) #19
  %66 = call noundef nonnull align 8 dereferenceable(8) ptr @_ZSt3maxIdERKT_S2_S2_(ptr noundef nonnull align 8 dereferenceable(8) %5, ptr noundef nonnull align 8 dereferenceable(8) %4)
  %67 = load double, ptr %66, align 8, !tbaa !93
  %68 = call noundef nonnull align 8 dereferenceable(8) ptr @_ZSt3minIdERKT_S2_S2_(ptr noundef nonnull align 8 dereferenceable(8) %5, ptr noundef nonnull align 8 dereferenceable(8) %4)
  %69 = load double, ptr %68, align 8, !tbaa !93
  %70 = fdiv double %67, %69
  store double %70, ptr %6, align 8, !tbaa !93
  %71 = load double, ptr %6, align 8, !tbaa !93
  %72 = fcmp olt double %71, 1.000000e+01
  %73 = zext i1 %72 to i8
  store i8 %73, ptr %3, align 1, !tbaa !65
  call void @llvm.lifetime.end.p0(i64 8, ptr %6) #19
  call void @llvm.lifetime.end.p0(i64 8, ptr %5) #19
  call void @llvm.lifetime.end.p0(i64 8, ptr %4) #19
  br label %74

74:                                               ; preds = %51, %42, %37, %33, %29, %24
  call void @llvm.lifetime.start.p0(i64 4, ptr %7) #19
  %75 = getelementptr inbounds nuw %struct.StatusPrinter, ptr %15, i32 0, i32 3
  %76 = load i32, ptr %75, align 4, !tbaa !36
  store i32 %76, ptr %7, align 4, !tbaa !59
  %77 = load i8, ptr %3, align 1, !tbaa !65, !range !66, !noundef !67
  %78 = trunc i8 %77 to i1
  br i1 %78, label %79, label %84

79:                                               ; preds = %74
  %80 = getelementptr inbounds nuw %struct.StatusPrinter, ptr %15, i32 0, i32 11
  %81 = load i32, ptr %80, align 8, !tbaa !44
  %82 = load i32, ptr %7, align 4, !tbaa !59
  %83 = add nsw i32 %82, %81
  store i32 %83, ptr %7, align 4, !tbaa !59
  br label %84

84:                                               ; preds = %79, %74
  %85 = load i32, ptr %7, align 4, !tbaa !59
  %86 = icmp eq i32 %85, 0
  br i1 %86, label %87, label %88

87:                                               ; preds = %84
  store i32 1, ptr %8, align 4
  br label %147

88:                                               ; preds = %84
  call void @llvm.lifetime.start.p0(i64 4, ptr %9) #19
  %89 = load i8, ptr %3, align 1, !tbaa !65, !range !66, !noundef !67
  %90 = trunc i8 %89 to i1
  br i1 %90, label %91, label %94

91:                                               ; preds = %88
  %92 = getelementptr inbounds nuw %struct.StatusPrinter, ptr %15, i32 0, i32 13
  %93 = load i32, ptr %92, align 8, !tbaa !46
  br label %100

94:                                               ; preds = %88
  %95 = getelementptr inbounds nuw %struct.StatusPrinter, ptr %15, i32 0, i32 4
  %96 = load i32, ptr %95, align 8, !tbaa !37
  %97 = getelementptr inbounds nuw %struct.StatusPrinter, ptr %15, i32 0, i32 3
  %98 = load i32, ptr %97, align 4, !tbaa !36
  %99 = sub nsw i32 %96, %98
  br label %100

100:                                              ; preds = %94, %91
  %101 = phi i32 [ %93, %91 ], [ %99, %94 ]
  store i32 %101, ptr %9, align 4, !tbaa !59
  call void @llvm.lifetime.start.p0(i64 8, ptr %10) #19
  %102 = getelementptr inbounds nuw %struct.StatusPrinter, ptr %15, i32 0, i32 7
  %103 = load i64, ptr %102, align 8, !tbaa !40
  store i64 %103, ptr %10, align 8, !tbaa !83
  %104 = load i8, ptr %3, align 1, !tbaa !65, !range !66, !noundef !67
  %105 = trunc i8 %104 to i1
  br i1 %105, label %106, label %111

106:                                              ; preds = %100
  %107 = getelementptr inbounds nuw %struct.StatusPrinter, ptr %15, i32 0, i32 12
  %108 = load i64, ptr %107, align 8, !tbaa !45
  %109 = load i64, ptr %10, align 8, !tbaa !83
  %110 = add nsw i64 %109, %108
  store i64 %110, ptr %10, align 8, !tbaa !83
  br label %111

111:                                              ; preds = %106, %100
  call void @llvm.lifetime.start.p0(i64 8, ptr %11) #19
  %112 = load i64, ptr %10, align 8, !tbaa !83
  %113 = sitofp i64 %112 to double
  %114 = load i32, ptr %7, align 4, !tbaa !59
  %115 = sitofp i32 %114 to double
  %116 = fdiv double %113, %115
  store double %116, ptr %11, align 8, !tbaa !93
  call void @llvm.lifetime.start.p0(i64 8, ptr %12) #19
  %117 = load double, ptr %11, align 8, !tbaa !93
  %118 = load i32, ptr %9, align 4, !tbaa !59
  %119 = sitofp i32 %118 to double
  %120 = fmul double %117, %119
  store double %120, ptr %12, align 8, !tbaa !93
  call void @llvm.lifetime.start.p0(i64 8, ptr %13) #19
  %121 = load double, ptr %12, align 8, !tbaa !93
  store double %121, ptr %13, align 8, !tbaa !93
  %122 = load i8, ptr %3, align 1, !tbaa !65, !range !66, !noundef !67
  %123 = trunc i8 %122 to i1
  br i1 %123, label %124, label %130

124:                                              ; preds = %111
  %125 = getelementptr inbounds nuw %struct.StatusPrinter, ptr %15, i32 0, i32 12
  %126 = load i64, ptr %125, align 8, !tbaa !45
  %127 = sitofp i64 %126 to double
  %128 = load double, ptr %13, align 8, !tbaa !93
  %129 = fadd double %128, %127
  store double %129, ptr %13, align 8, !tbaa !93
  br label %130

130:                                              ; preds = %124, %111
  call void @llvm.lifetime.start.p0(i64 8, ptr %14) #19
  %131 = getelementptr inbounds nuw %struct.StatusPrinter, ptr %15, i32 0, i32 7
  %132 = load i64, ptr %131, align 8, !tbaa !40
  %133 = sitofp i64 %132 to double
  %134 = load double, ptr %13, align 8, !tbaa !93
  %135 = fadd double %133, %134
  store double %135, ptr %14, align 8, !tbaa !93
  %136 = load double, ptr %14, align 8, !tbaa !93
  %137 = fcmp oeq double %136, 0.000000e+00
  br i1 %137, label %138, label %139

138:                                              ; preds = %130
  store i32 1, ptr %8, align 4
  br label %146

139:                                              ; preds = %130
  %140 = getelementptr inbounds nuw %struct.StatusPrinter, ptr %15, i32 0, i32 7
  %141 = load i64, ptr %140, align 8, !tbaa !40
  %142 = sitofp i64 %141 to double
  %143 = load double, ptr %14, align 8, !tbaa !93
  %144 = fdiv double %142, %143
  %145 = getelementptr inbounds nuw %struct.StatusPrinter, ptr %15, i32 0, i32 8
  store double %144, ptr %145, align 8, !tbaa !41
  store i32 0, ptr %8, align 4
  br label %146

146:                                              ; preds = %139, %138
  call void @llvm.lifetime.end.p0(i64 8, ptr %14) #19
  call void @llvm.lifetime.end.p0(i64 8, ptr %13) #19
  call void @llvm.lifetime.end.p0(i64 8, ptr %12) #19
  call void @llvm.lifetime.end.p0(i64 8, ptr %11) #19
  call void @llvm.lifetime.end.p0(i64 8, ptr %10) #19
  call void @llvm.lifetime.end.p0(i64 4, ptr %9) #19
  br label %147

147:                                              ; preds = %146, %87
  call void @llvm.lifetime.end.p0(i64 4, ptr %7) #19
  call void @llvm.lifetime.end.p0(i64 1, ptr %3) #19
  %148 = load i32, ptr %8, align 4
  switch i32 %148, label %150 [
    i32 0, label %149
    i32 1, label %149
  ]

149:                                              ; preds = %147, %147
  ret void

150:                                              ; preds = %147
  unreachable
}