; Function Attrs: mustprogress nofree norecurse nosync nounwind willreturn memory(argmem: readwrite) uwtable
define dso_local void @_ZN13StatusPrinter29RecalculateProgressPredictionEv(ptr noundef nonnull align 8 captures(none) dereferenceable(296) initializes((48, 56)) %0) local_unnamed_addr #6 align 2 {
  %2 = getelementptr inbounds nuw i8, ptr %0, i64 48
  store double 0.000000e+00, ptr %2, align 8, !tbaa !88
  %3 = getelementptr inbounds nuw i8, ptr %0, i64 72
  %4 = load i32, ptr %3, align 8, !tbaa !34
  %.not = icmp ne i32 %4, 0
  %5 = getelementptr inbounds nuw i8, ptr %0, i64 80
  %6 = load i64, ptr %5, align 8
  %7 = icmp ne i64 %6, 0
  %8 = select i1 %.not, i1 %7, i1 false
  br i1 %8, label %11, label %.thread38

.thread38:                                        ; preds = %1
  %9 = getelementptr inbounds nuw i8, ptr %0, i64 20
  %10 = load i32, ptr %9, align 4, !tbaa !89
  br label %41

11:                                               ; preds = %1
  %12 = getelementptr inbounds nuw i8, ptr %0, i64 24
  %13 = load i32, ptr %12, align 8, !tbaa !51
  %.not24 = icmp eq i32 %13, 0
  %.phi.trans.insert = getelementptr inbounds nuw i8, ptr %0, i64 20
  %.pre = load i32, ptr %.phi.trans.insert, align 4, !tbaa !89
  br i1 %.not24, label %.thread, label %14

14:                                               ; preds = %11
  %.not25 = icmp ne i32 %.pre, 0
  %15 = getelementptr inbounds nuw i8, ptr %0, i64 32
  %16 = load i64, ptr %15, align 8
  %17 = icmp sgt i64 %16, 14999
  %or.cond = select i1 %.not25, i1 %17, i1 false
  br i1 %or.cond, label %18, label %.thread

18:                                               ; preds = %14
  %19 = sitofp i32 %.pre to double
  %20 = sitofp i32 %13 to double
  %21 = fdiv double %19, %20
  %22 = fcmp ult double %21, 5.000000e-02
  br i1 %22, label %.thread, label %24

.thread:                                          ; preds = %11, %18, %14
  %23 = add nsw i32 %.pre, %4
  br label %41

24:                                               ; preds = %18
  %25 = getelementptr inbounds nuw i8, ptr %0, i64 40
  %26 = load i64, ptr %25, align 8, !tbaa !90
  %27 = sitofp i64 %26 to double
  %28 = fdiv double %27, %19
  %29 = getelementptr inbounds nuw i8, ptr %0, i64 64
  %30 = load i64, ptr %29, align 8, !tbaa !11
  %31 = sitofp i64 %30 to double
  %32 = getelementptr inbounds nuw i8, ptr %0, i64 56
  %33 = load i32, ptr %32, align 8, !tbaa !64
  %34 = sitofp i32 %33 to double
  %35 = fdiv double %31, %34
  %36 = fcmp olt double %35, %28
  %.sroa.speculated32 = select i1 %36, double %28, double %35
  %37 = fcmp olt double %28, %35
  %.sroa.speculated = select i1 %37, double %28, double %35
  %38 = fdiv double %.sroa.speculated32, %.sroa.speculated
  %.fr = freeze double %38
  %39 = fcmp olt double %.fr, 1.000000e+01
  %40 = select i1 %39, i32 %4, i32 0
  %spec.select = add nsw i32 %40, %.pre
  br label %41

41:                                               ; preds = %24, %.thread, %.thread38
  %42 = phi i32 [ %10, %.thread38 ], [ %.pre, %.thread ], [ %.pre, %24 ]
  %.0.in36 = phi i1 [ false, %.thread38 ], [ true, %.thread ], [ %39, %24 ]
  %43 = phi i32 [ %10, %.thread38 ], [ %23, %.thread ], [ %spec.select, %24 ]
  %44 = icmp eq i32 %43, 0
  br i1 %44, label %67, label %45

45:                                               ; preds = %41
  %46 = getelementptr inbounds nuw i8, ptr %0, i64 88
  %47 = load i32, ptr %46, align 8
  %48 = getelementptr inbounds nuw i8, ptr %0, i64 24
  %49 = load i32, ptr %48, align 8
  %50 = sub nsw i32 %49, %42
  %51 = select i1 %.0.in36, i32 %47, i32 %50
  %52 = getelementptr inbounds nuw i8, ptr %0, i64 40
  %53 = load i64, ptr %52, align 8, !tbaa !90
  %54 = select i1 %.0.in36, i64 %6, i64 0
  %.020 = add nsw i64 %53, %54
  %55 = sitofp i64 %.020 to double
  %56 = sitofp i32 %43 to double
  %57 = fdiv double %55, %56
  %58 = sitofp i32 %51 to double
  %59 = fmul double %57, %58
  %60 = sitofp i64 %6 to double
  %61 = fadd double %59, %60
  %.018 = select i1 %.0.in36, double %61, double %59
  %62 = sitofp i64 %53 to double
  %63 = fadd double %.018, %62
  %64 = fcmp oeq double %63, 0.000000e+00
  br i1 %64, label %67, label %65

65:                                               ; preds = %45
  %66 = fdiv double %62, %63
  store double %66, ptr %2, align 8, !tbaa !88
  br label %67

67:                                               ; preds = %65, %45, %41
  ret void
}